; ModuleID = '41/481.c'
source_filename = "41/481.c"
target datalayout = "e-m:e-p270:32:32-p271:32:32-p272:64:64-i64:64-f80:128-n8:16:32:64-S128"
target triple = "x86_64-pc-linux-gnu"

@.str = private unnamed_addr constant [16 x i8] c"%d %d %d %d %d\0A\00", align 1

; Function Attrs: noinline nounwind uwtable
define dso_local i32 @main() #0 {
  %1 = alloca i32, align 4
  %2 = alloca i32, align 4
  %3 = alloca i32, align 4
  %4 = alloca i32, align 4
  %5 = alloca i32, align 4
  %6 = alloca i32, align 4
  store i32 0, i32* %1, align 4
  store i32 1, i32* %2, align 4
  br label %7

7:                                                ; preds = %172, %0
  %8 = load i32, i32* %2, align 4
  %9 = icmp sle i32 %8, 5
  br i1 %9, label %10, label %175

10:                                               ; preds = %7
  store i32 1, i32* %3, align 4
  br label %11

11:                                               ; preds = %168, %10
  %12 = load i32, i32* %3, align 4
  %13 = icmp sle i32 %12, 5
  br i1 %13, label %14, label %171

14:                                               ; preds = %11
  %15 = load i32, i32* %2, align 4
  %16 = load i32, i32* %3, align 4
  %17 = icmp eq i32 %15, %16
  br i1 %17, label %18, label %19

18:                                               ; preds = %14
  br label %168

19:                                               ; preds = %14
  store i32 1, i32* %4, align 4
  br label %20

20:                                               ; preds = %164, %19
  %21 = load i32, i32* %4, align 4
  %22 = icmp sle i32 %21, 5
  br i1 %22, label %23, label %167

23:                                               ; preds = %20
  %24 = load i32, i32* %4, align 4
  %25 = load i32, i32* %3, align 4
  %26 = icmp eq i32 %24, %25
  br i1 %26, label %27, label %28

27:                                               ; preds = %23
  br label %164

28:                                               ; preds = %23
  %29 = load i32, i32* %4, align 4
  %30 = load i32, i32* %2, align 4
  %31 = icmp eq i32 %29, %30
  br i1 %31, label %32, label %33

32:                                               ; preds = %28
  br label %164

33:                                               ; preds = %28
  store i32 1, i32* %5, align 4
  br label %34

34:                                               ; preds = %160, %33
  %35 = load i32, i32* %5, align 4
  %36 = icmp sle i32 %35, 5
  br i1 %36, label %37, label %163

37:                                               ; preds = %34
  %38 = load i32, i32* %5, align 4
  %39 = load i32, i32* %4, align 4
  %40 = icmp eq i32 %38, %39
  br i1 %40, label %41, label %42

41:                                               ; preds = %37
  br label %160

42:                                               ; preds = %37
  %43 = load i32, i32* %5, align 4
  %44 = load i32, i32* %2, align 4
  %45 = icmp eq i32 %43, %44
  br i1 %45, label %46, label %47

46:                                               ; preds = %42
  br label %160

47:                                               ; preds = %42
  %48 = load i32, i32* %5, align 4
  %49 = load i32, i32* %3, align 4
  %50 = icmp eq i32 %48, %49
  br i1 %50, label %51, label %52

51:                                               ; preds = %47
  br label %160

52:                                               ; preds = %47
  store i32 1, i32* %6, align 4
  br label %53

53:                                               ; preds = %156, %52
  %54 = load i32, i32* %6, align 4
  %55 = icmp sle i32 %54, 5
  br i1 %55, label %56, label %159

56:                                               ; preds = %53
  %57 = load i32, i32* %6, align 4
  %58 = icmp eq i32 %57, 2
  br i1 %58, label %59, label %60

59:                                               ; preds = %56
  br label %156

60:                                               ; preds = %56
  %61 = load i32, i32* %6, align 4
  %62 = icmp eq i32 %61, 3
  br i1 %62, label %63, label %64

63:                                               ; preds = %60
  br label %156

64:                                               ; preds = %60
  %65 = load i32, i32* %6, align 4
  %66 = load i32, i32* %2, align 4
  %67 = icmp eq i32 %65, %66
  br i1 %67, label %68, label %69

68:                                               ; preds = %64
  br label %156

69:                                               ; preds = %64
  %70 = load i32, i32* %6, align 4
  %71 = load i32, i32* %3, align 4
  %72 = icmp eq i32 %70, %71
  br i1 %72, label %73, label %74

73:                                               ; preds = %69
  br label %156

74:                                               ; preds = %69
  %75 = load i32, i32* %6, align 4
  %76 = load i32, i32* %4, align 4
  %77 = icmp eq i32 %75, %76
  br i1 %77, label %78, label %79

78:                                               ; preds = %74
  br label %156

79:                                               ; preds = %74
  %80 = load i32, i32* %6, align 4
  %81 = load i32, i32* %5, align 4
  %82 = icmp eq i32 %80, %81
  br i1 %82, label %83, label %84

83:                                               ; preds = %79
  br label %156

84:                                               ; preds = %79
  %85 = load i32, i32* %2, align 4
  %86 = icmp sle i32 %85, 2
  br i1 %86, label %87, label %92

87:                                               ; preds = %84
  %88 = load i32, i32* %6, align 4
  %89 = icmp ne i32 %88, 1
  br i1 %89, label %90, label %91

90:                                               ; preds = %87
  br label %156

91:                                               ; preds = %87
  br label %97

92:                                               ; preds = %84
  %93 = load i32, i32* %6, align 4
  %94 = icmp eq i32 %93, 1
  br i1 %94, label %95, label %96

95:                                               ; preds = %92
  br label %156

96:                                               ; preds = %92
  br label %97

97:                                               ; preds = %96, %91
  %98 = load i32, i32* %3, align 4
  %99 = icmp sle i32 %98, 2
  br i1 %99, label %100, label %105

100:                                              ; preds = %97
  %101 = load i32, i32* %3, align 4
  %102 = icmp ne i32 %101, 2
  br i1 %102, label %103, label %104

103:                                              ; preds = %100
  br label %156

104:                                              ; preds = %100
  br label %110

105:                                              ; preds = %97
  %106 = load i32, i32* %3, align 4
  %107 = icmp eq i32 %106, 2
  br i1 %107, label %108, label %109

108:                                              ; preds = %105
  br label %156

109:                                              ; preds = %105
  br label %110

110:                                              ; preds = %109, %104
  %111 = load i32, i32* %4, align 4
  %112 = icmp sle i32 %111, 2
  br i1 %112, label %113, label %118

113:                                              ; preds = %110
  %114 = load i32, i32* %2, align 4
  %115 = icmp ne i32 %114, 5
  br i1 %115, label %116, label %117

116:                                              ; preds = %113
  br label %156

117:                                              ; preds = %113
  br label %123

118:                                              ; preds = %110
  %119 = load i32, i32* %2, align 4
  %120 = icmp eq i32 %119, 5
  br i1 %120, label %121, label %122

121:                                              ; preds = %118
  br label %156

122:                                              ; preds = %118
  br label %123

123:                                              ; preds = %122, %117
  %124 = load i32, i32* %5, align 4
  %125 = icmp sle i32 %124, 2
  br i1 %125, label %126, label %131

126:                                              ; preds = %123
  %127 = load i32, i32* %4, align 4
  %128 = icmp eq i32 %127, 1
  br i1 %128, label %129, label %130

129:                                              ; preds = %126
  br label %156

130:                                              ; preds = %126
  br label %136

131:                                              ; preds = %123
  %132 = load i32, i32* %4, align 4
  %133 = icmp ne i32 %132, 1
  br i1 %133, label %134, label %135

134:                                              ; preds = %131
  br label %156

135:                                              ; preds = %131
  br label %136

136:                                              ; preds = %135, %130
  %137 = load i32, i32* %6, align 4
  %138 = icmp sle i32 %137, 2
  br i1 %138, label %139, label %144

139:                                              ; preds = %136
  %140 = load i32, i32* %5, align 4
  %141 = icmp ne i32 %140, 1
  br i1 %141, label %142, label %143

142:                                              ; preds = %139
  br label %156

143:                                              ; preds = %139
  br label %149

144:                                              ; preds = %136
  %145 = load i32, i32* %5, align 4
  %146 = icmp eq i32 %145, 1
  br i1 %146, label %147, label %148

147:                                              ; preds = %144
  br label %156

148:                                              ; preds = %144
  br label %149

149:                                              ; preds = %148, %143
  %150 = load i32, i32* %2, align 4
  %151 = load i32, i32* %3, align 4
  %152 = load i32, i32* %4, align 4
  %153 = load i32, i32* %5, align 4
  %154 = load i32, i32* %6, align 4
  %155 = call i32 (i8*, ...) @printf(i8* getelementptr inbounds ([16 x i8], [16 x i8]* @.str, i64 0, i64 0), i32 %150, i32 %151, i32 %152, i32 %153, i32 %154)
  br label %156

156:                                              ; preds = %149, %147, %142, %134, %129, %121, %116, %108, %103, %95, %90, %83, %78, %73, %68, %63, %59
  %157 = load i32, i32* %6, align 4
  %158 = add nsw i32 %157, 1
  store i32 %158, i32* %6, align 4
  br label %53

159:                                              ; preds = %53
  br label %160

160:                                              ; preds = %159, %51, %46, %41
  %161 = load i32, i32* %5, align 4
  %162 = add nsw i32 %161, 1
  store i32 %162, i32* %5, align 4
  br label %34

163:                                              ; preds = %34
  br label %164

164:                                              ; preds = %163, %32, %27
  %165 = load i32, i32* %4, align 4
  %166 = add nsw i32 %165, 1
  store i32 %166, i32* %4, align 4
  br label %20

167:                                              ; preds = %20
  br label %168

168:                                              ; preds = %167, %18
  %169 = load i32, i32* %3, align 4
  %170 = add nsw i32 %169, 1
  store i32 %170, i32* %3, align 4
  br label %11

171:                                              ; preds = %11
  br label %172

172:                                              ; preds = %171
  %173 = load i32, i32* %2, align 4
  %174 = add nsw i32 %173, 1
  store i32 %174, i32* %2, align 4
  br label %7

175:                                              ; preds = %7
  %176 = call i32 @getchar()
  %177 = load i32, i32* %1, align 4
  ret i32 %177
}

declare dso_local i32 @printf(i8*, ...) #1

declare dso_local i32 @getchar() #1


!llvm.module.flags = !{!0}
!llvm.ident = !{!1}

!0 = !{i32 1, !"wchar_size", i32 4}
!1 = !{!"clang version 10.0.0-4ubuntu1 "}
